; ModuleID = '25/426.cpp'
source_filename = "25/426.cpp"
target datalayout = "e-m:e-p270:32:32-p271:32:32-p272:64:64-i64:64-f80:128-n8:16:32:64-S128"
target triple = "x86_64-pc-linux-gnu"

%"class.std::ios_base::Init" = type { i8 }
%"class.std::basic_istream" = type { i32 (...)**, i64, %"class.std::basic_ios" }
%"class.std::basic_ios" = type { %"class.std::ios_base", %"class.std::basic_ostream"*, i8, i8, %"class.std::basic_streambuf"*, %"class.std::ctype"*, %"class.std::num_put"*, %"class.std::num_get"* }
%"class.std::ios_base" = type { i32 (...)**, i64, i64, i32, i32, i32, %"struct.std::ios_base::_Callback_list"*, %"struct.std::ios_base::_Words", [8 x %"struct.std::ios_base::_Words"], i32, %"struct.std::ios_base::_Words"*, %"class.std::locale" }
%"struct.std::ios_base::_Callback_list" = type { %"struct.std::ios_base::_Callback_list"*, void (i32, %"class.std::ios_base"*, i32)*, i32, i32 }
%"struct.std::ios_base::_Words" = type { i8*, i64 }
%"class.std::locale" = type { %"class.std::locale::_Impl"* }
%"class.std::locale::_Impl" = type { i32, %"class.std::locale::facet"**, i64, %"class.std::locale::facet"**, i8** }
%"class.std::locale::facet" = type <{ i32 (...)**, i32, [4 x i8] }>
%"class.std::basic_ostream" = type { i32 (...)**, %"class.std::basic_ios" }
%"class.std::basic_streambuf" = type { i32 (...)**, i8*, i8*, i8*, i8*, i8*, i8*, %"class.std::locale" }
%"class.std::ctype" = type <{ %"class.std::locale::facet.base", [4 x i8], %struct.__locale_struct*, i8, [7 x i8], i32*, i32*, i16*, i8, [256 x i8], [256 x i8], i8, [6 x i8] }>
%"class.std::locale::facet.base" = type <{ i32 (...)**, i32 }>
%struct.__locale_struct = type { [13 x %struct.__locale_data*], i16*, i32*, i32*, [13 x i8*] }
%struct.__locale_data = type opaque
%"class.std::num_put" = type { %"class.std::locale::facet.base", [4 x i8] }
%"class.std::num_get" = type { %"class.std::locale::facet.base", [4 x i8] }

@_ZStL8__ioinit = internal global %"class.std::ios_base::Init" zeroinitializer, align 1
@__dso_handle = external hidden global i8
@_ZSt3cin = external dso_local global %"class.std::basic_istream", align 8
@_ZSt4cout = external dso_local global %"class.std::basic_ostream", align 8
@llvm.global_ctors = appending global [1 x { i32, void ()*, i8* }] [{ i32, void ()*, i8* } { i32 65535, void ()* @_GLOBAL__sub_I_426.cpp, i8* null }]

; Function Attrs: noinline uwtable
define internal void @__cxx_global_var_init() #0 section ".text.startup" {
  call void @_ZNSt8ios_base4InitC1Ev(%"class.std::ios_base::Init"* @_ZStL8__ioinit)
  %1 = call i32 @__cxa_atexit(void (i8*)* bitcast (void (%"class.std::ios_base::Init"*)* @_ZNSt8ios_base4InitD1Ev to void (i8*)*), i8* getelementptr inbounds (%"class.std::ios_base::Init", %"class.std::ios_base::Init"* @_ZStL8__ioinit, i32 0, i32 0), i8* @__dso_handle) #3
  ret void
}

declare dso_local void @_ZNSt8ios_base4InitC1Ev(%"class.std::ios_base::Init"*) unnamed_addr #1

; Function Attrs: nounwind
declare dso_local void @_ZNSt8ios_base4InitD1Ev(%"class.std::ios_base::Init"*) unnamed_addr #2

; Function Attrs: nounwind
declare dso_local i32 @__cxa_atexit(void (i8*)*, i8*, i8*) #3

; Function Attrs: noinline norecurse uwtable
define dso_local i32 @main() #4 {
  %1 = alloca i32, align 4
  %2 = alloca i32, align 4
  %3 = alloca i32, align 4
  %4 = alloca i32, align 4
  %5 = alloca i32, align 4
  %6 = alloca i32, align 4
  %7 = alloca i32, align 4
  %8 = alloca [40 x i8], align 16
  store i32 0, i32* %1, align 4
  store i32 1, i32* %3, align 4
  store i32 0, i32* %6, align 4
  %9 = call dereferenceable(280) %"class.std::basic_istream"* @_ZNSirsERi(%"class.std::basic_istream"* @_ZSt3cin, i32* dereferenceable(4) %2)
  store i32 0, i32* %4, align 4
  br label %10

10:                                               ; preds = %17, %0
  %11 = load i32, i32* %4, align 4
  %12 = icmp slt i32 %11, 40
  br i1 %12, label %13, label %20

13:                                               ; preds = %10
  %14 = load i32, i32* %4, align 4
  %15 = sext i32 %14 to i64
  %16 = getelementptr inbounds [40 x i8], [40 x i8]* %8, i64 0, i64 %15
  store i8 48, i8* %16, align 1
  br label %17

17:                                               ; preds = %13
  %18 = load i32, i32* %4, align 4
  %19 = add nsw i32 %18, 1
  store i32 %19, i32* %4, align 4
  br label %10

20:                                               ; preds = %10
  %21 = getelementptr inbounds [40 x i8], [40 x i8]* %8, i64 0, i64 0
  store i8 49, i8* %21, align 16
  store i32 1, i32* %4, align 4
  br label %22

22:                                               ; preds = %77, %20
  %23 = load i32, i32* %4, align 4
  %24 = load i32, i32* %2, align 4
  %25 = icmp sle i32 %23, %24
  br i1 %25, label %26, label %80

26:                                               ; preds = %22
  store i32 0, i32* %6, align 4
  store i32 0, i32* %5, align 4
  br label %27

27:                                               ; preds = %73, %26
  %28 = load i32, i32* %5, align 4
  %29 = icmp slt i32 %28, 40
  br i1 %29, label %30, label %76

30:                                               ; preds = %27
  %31 = load i32, i32* %5, align 4
  %32 = sext i32 %31 to i64
  %33 = getelementptr inbounds [40 x i8], [40 x i8]* %8, i64 0, i64 %32
  %34 = load i8, i8* %33, align 1
  %35 = sext i8 %34 to i32
  %36 = sub nsw i32 %35, 48
  %37 = mul nsw i32 2, %36
  %38 = load i32, i32* %6, align 4
  %39 = add nsw i32 %37, %38
  %40 = icmp sge i32 %39, 10
  br i1 %40, label %41, label %57

41:                                               ; preds = %30
  %42 = load i32, i32* %5, align 4
  %43 = sext i32 %42 to i64
  %44 = getelementptr inbounds [40 x i8], [40 x i8]* %8, i64 0, i64 %43
  %45 = load i8, i8* %44, align 1
  %46 = sext i8 %45 to i32
  %47 = sub nsw i32 %46, 48
  %48 = mul nsw i32 2, %47
  %49 = sub nsw i32 %48, 10
  %50 = load i32, i32* %6, align 4
  %51 = add nsw i32 %49, %50
  %52 = add nsw i32 %51, 48
  %53 = trunc i32 %52 to i8
  %54 = load i32, i32* %5, align 4
  %55 = sext i32 %54 to i64
  %56 = getelementptr inbounds [40 x i8], [40 x i8]* %8, i64 0, i64 %55
  store i8 %53, i8* %56, align 1
  store i32 1, i32* %6, align 4
  br label %72

57:                                               ; preds = %30
  %58 = load i32, i32* %5, align 4
  %59 = sext i32 %58 to i64
  %60 = getelementptr inbounds [40 x i8], [40 x i8]* %8, i64 0, i64 %59
  %61 = load i8, i8* %60, align 1
  %62 = sext i8 %61 to i32
  %63 = sub nsw i32 %62, 48
  %64 = mul nsw i32 2, %63
  %65 = load i32, i32* %6, align 4
  %66 = add nsw i32 %64, %65
  %67 = add nsw i32 %66, 48
  %68 = trunc i32 %67 to i8
  %69 = load i32, i32* %5, align 4
  %70 = sext i32 %69 to i64
  %71 = getelementptr inbounds [40 x i8], [40 x i8]* %8, i64 0, i64 %70
  store i8 %68, i8* %71, align 1
  store i32 0, i32* %6, align 4
  br label %72

72:                                               ; preds = %57, %41
  br label %73

73:                                               ; preds = %72
  %74 = load i32, i32* %5, align 4
  %75 = add nsw i32 %74, 1
  store i32 %75, i32* %5, align 4
  br label %27

76:                                               ; preds = %27
  br label %77

77:                                               ; preds = %76
  %78 = load i32, i32* %4, align 4
  %79 = add nsw i32 %78, 1
  store i32 %79, i32* %4, align 4
  br label %22

80:                                               ; preds = %22
  store i32 0, i32* %4, align 4
  br label %81

81:                                               ; preds = %110, %80
  %82 = load i32, i32* %4, align 4
  %83 = icmp slt i32 %82, 40
  br i1 %83, label %84, label %113

84:                                               ; preds = %81
  %85 = load i32, i32* %4, align 4
  %86 = sext i32 %85 to i64
  %87 = getelementptr inbounds [40 x i8], [40 x i8]* %8, i64 0, i64 %86
  %88 = load i8, i8* %87, align 1
  %89 = sext i8 %88 to i32
  %90 = icmp eq i32 %89, 48
  br i1 %90, label %91, label %109

91:                                               ; preds = %84
  %92 = load i32, i32* %4, align 4
  %93 = add nsw i32 %92, 1
  %94 = sext i32 %93 to i64
  %95 = getelementptr inbounds [40 x i8], [40 x i8]* %8, i64 0, i64 %94
  %96 = load i8, i8* %95, align 1
  %97 = sext i8 %96 to i32
  %98 = icmp eq i32 %97, 48
  br i1 %98, label %99, label %109

99:                                               ; preds = %91
  %100 = load i32, i32* %4, align 4
  %101 = add nsw i32 %100, 2
  %102 = sext i32 %101 to i64
  %103 = getelementptr inbounds [40 x i8], [40 x i8]* %8, i64 0, i64 %102
  %104 = load i8, i8* %103, align 1
  %105 = sext i8 %104 to i32
  %106 = icmp eq i32 %105, 48
  br i1 %106, label %107, label %109

107:                                              ; preds = %99
  %108 = load i32, i32* %4, align 4
  store i32 %108, i32* %7, align 4
  br label %113

109:                                              ; preds = %99, %91, %84
  br label %110

110:                                              ; preds = %109
  %111 = load i32, i32* %4, align 4
  %112 = add nsw i32 %111, 1
  store i32 %112, i32* %4, align 4
  br label %81

113:                                              ; preds = %107, %81
  %114 = load i32, i32* %7, align 4
  %115 = sub nsw i32 %114, 1
  store i32 %115, i32* %4, align 4
  br label %116

116:                                              ; preds = %125, %113
  %117 = load i32, i32* %4, align 4
  %118 = icmp sge i32 %117, 0
  br i1 %118, label %119, label %128

119:                                              ; preds = %116
  %120 = load i32, i32* %4, align 4
  %121 = sext i32 %120 to i64
  %122 = getelementptr inbounds [40 x i8], [40 x i8]* %8, i64 0, i64 %121
  %123 = load i8, i8* %122, align 1
  %124 = call dereferenceable(272) %"class.std::basic_ostream"* @_ZStlsISt11char_traitsIcEERSt13basic_ostreamIcT_ES5_c(%"class.std::basic_ostream"* dereferenceable(272) @_ZSt4cout, i8 signext %123)
  br label %125

125:                                              ; preds = %119
  %126 = load i32, i32* %4, align 4
  %127 = add nsw i32 %126, -1
  store i32 %127, i32* %4, align 4
  br label %116

128:                                              ; preds = %116
  ret i32 0
}

declare dso_local dereferenceable(280) %"class.std::basic_istream"* @_ZNSirsERi(%"class.std::basic_istream"*, i32* dereferenceable(4)) #1

declare dso_local dereferenceable(272) %"class.std::basic_ostream"* @_ZStlsISt11char_traitsIcEERSt13basic_ostreamIcT_ES5_c(%"class.std::basic_ostream"* dereferenceable(272), i8 signext) #1

; Function Attrs: noinline uwtable
define internal void @_GLOBAL__sub_I_426.cpp() #0 section ".text.startup" {
  call void @__cxx_global_var_init()
  ret void
}


!llvm.module.flags = !{!0}
!llvm.ident = !{!1}

!0 = !{i32 1, !"wchar_size", i32 4}
!1 = !{!"clang version 10.0.0-4ubuntu1 "}
